
a.out:     file format elf64-littleaarch64


Disassembly of section .init:

0000000000400760 <_init>:
  400760:	a9bf7bfd 	stp	x29, x30, [sp,#-16]!
  400764:	910003fd 	mov	x29, sp
  400768:	9400004c 	bl	400898 <call_weak_fn>
  40076c:	a8c17bfd 	ldp	x29, x30, [sp],#16
  400770:	d65f03c0 	ret

Disassembly of section .plt:

0000000000400780 <__libc_start_main@plt-0x20>:
  400780:	a9bf7bf0 	stp	x16, x30, [sp,#-16]!
  400784:	90000090 	adrp	x16, 410000 <__FRAME_END__+0xf278>
  400788:	f947ea11 	ldr	x17, [x16,#4048]
  40078c:	913f4210 	add	x16, x16, #0xfd0
  400790:	d61f0220 	br	x17
  400794:	d503201f 	nop
  400798:	d503201f 	nop
  40079c:	d503201f 	nop

00000000004007a0 <__libc_start_main@plt>:
  4007a0:	90000090 	adrp	x16, 410000 <__FRAME_END__+0xf278>
  4007a4:	f947ee11 	ldr	x17, [x16,#4056]
  4007a8:	913f6210 	add	x16, x16, #0xfd8
  4007ac:	d61f0220 	br	x17

00000000004007b0 <__gmon_start__@plt>:
  4007b0:	90000090 	adrp	x16, 410000 <__FRAME_END__+0xf278>
  4007b4:	f947f211 	ldr	x17, [x16,#4064]
  4007b8:	913f8210 	add	x16, x16, #0xfe0
  4007bc:	d61f0220 	br	x17

00000000004007c0 <_ZNSt8ios_base4InitC1Ev@plt>:
  4007c0:	90000090 	adrp	x16, 410000 <__FRAME_END__+0xf278>
  4007c4:	f947f611 	ldr	x17, [x16,#4072]
  4007c8:	913fa210 	add	x16, x16, #0xfe8
  4007cc:	d61f0220 	br	x17

00000000004007d0 <munmap@plt>:
  4007d0:	90000090 	adrp	x16, 410000 <__FRAME_END__+0xf278>
  4007d4:	f947fa11 	ldr	x17, [x16,#4080]
  4007d8:	913fc210 	add	x16, x16, #0xff0
  4007dc:	d61f0220 	br	x17

00000000004007e0 <__cxa_atexit@plt>:
  4007e0:	90000090 	adrp	x16, 410000 <__FRAME_END__+0xf278>
  4007e4:	f947fe11 	ldr	x17, [x16,#4088]
  4007e8:	913fe210 	add	x16, x16, #0xff8
  4007ec:	d61f0220 	br	x17

00000000004007f0 <_ZNSt8ios_base4InitD1Ev@plt>:
  4007f0:	b0000090 	adrp	x16, 411000 <_GLOBAL_OFFSET_TABLE_+0x50>
  4007f4:	f9400211 	ldr	x17, [x16]
  4007f8:	91000210 	add	x16, x16, #0x0
  4007fc:	d61f0220 	br	x17

0000000000400800 <_ZStlsISt11char_traitsIcEERSt13basic_ostreamIcT_ES5_PKc@plt>:
  400800:	b0000090 	adrp	x16, 411000 <_GLOBAL_OFFSET_TABLE_+0x50>
  400804:	f9400611 	ldr	x17, [x16,#8]
  400808:	91002210 	add	x16, x16, #0x8
  40080c:	d61f0220 	br	x17

0000000000400810 <mmap@plt>:
  400810:	b0000090 	adrp	x16, 411000 <_GLOBAL_OFFSET_TABLE_+0x50>
  400814:	f9400a11 	ldr	x17, [x16,#16]
  400818:	91004210 	add	x16, x16, #0x10
  40081c:	d61f0220 	br	x17

0000000000400820 <abort@plt>:
  400820:	b0000090 	adrp	x16, 411000 <_GLOBAL_OFFSET_TABLE_+0x50>
  400824:	f9400e11 	ldr	x17, [x16,#24]
  400828:	91006210 	add	x16, x16, #0x18
  40082c:	d61f0220 	br	x17

0000000000400830 <_ZNSolsEPFRSoS_E@plt>:
  400830:	b0000090 	adrp	x16, 411000 <_GLOBAL_OFFSET_TABLE_+0x50>
  400834:	f9401211 	ldr	x17, [x16,#32]
  400838:	91008210 	add	x16, x16, #0x20
  40083c:	d61f0220 	br	x17

0000000000400840 <_ZSt4endlIcSt11char_traitsIcEERSt13basic_ostreamIT_T0_ES6_@plt>:
  400840:	b0000090 	adrp	x16, 411000 <_GLOBAL_OFFSET_TABLE_+0x50>
  400844:	f9401611 	ldr	x17, [x16,#40]
  400848:	9100a210 	add	x16, x16, #0x28
  40084c:	d61f0220 	br	x17

Disassembly of section .text:

0000000000400850 <_start>:
  400850:	d280001d 	mov	x29, #0x0                   	// #0
  400854:	d280001e 	mov	x30, #0x0                   	// #0
  400858:	910003fd 	mov	x29, sp
  40085c:	aa0003e5 	mov	x5, x0
  400860:	f94003e1 	ldr	x1, [sp]
  400864:	910023e2 	add	x2, sp, #0x8
  400868:	910003e6 	mov	x6, sp
  40086c:	580000a0 	ldr	x0, 400880 <_start+0x30>
  400870:	580000c3 	ldr	x3, 400888 <_start+0x38>
  400874:	580000e4 	ldr	x4, 400890 <_start+0x40>
  400878:	97ffffca 	bl	4007a0 <__libc_start_main@plt>
  40087c:	97ffffe9 	bl	400820 <abort@plt>
  400880:	004009a8 	.word	0x004009a8
  400884:	00000000 	.word	0x00000000
  400888:	00400ae4 	.word	0x00400ae4
  40088c:	00000000 	.word	0x00000000
  400890:	00400b5c 	.word	0x00400b5c
  400894:	00000000 	.word	0x00000000

0000000000400898 <call_weak_fn>:
  400898:	90000080 	adrp	x0, 410000 <__FRAME_END__+0xf278>
  40089c:	f947dc00 	ldr	x0, [x0,#4024]
  4008a0:	b4000040 	cbz	x0, 4008a8 <call_weak_fn+0x10>
  4008a4:	17ffffc3 	b	4007b0 <__gmon_start__@plt>
  4008a8:	d65f03c0 	ret
  4008ac:	00000000 	.inst	0x00000000 ; undefined

00000000004008b0 <deregister_tm_clones>:
  4008b0:	b0000081 	adrp	x1, 411000 <_GLOBAL_OFFSET_TABLE_+0x50>
  4008b4:	b0000080 	adrp	x0, 411000 <_GLOBAL_OFFSET_TABLE_+0x50>
  4008b8:	9100e021 	add	x1, x1, #0x38
  4008bc:	9100e000 	add	x0, x0, #0x38
  4008c0:	91001c21 	add	x1, x1, #0x7
  4008c4:	a9bf7bfd 	stp	x29, x30, [sp,#-16]!
  4008c8:	cb000021 	sub	x1, x1, x0
  4008cc:	f100383f 	cmp	x1, #0xe
  4008d0:	910003fd 	mov	x29, sp
  4008d4:	54000089 	b.ls	4008e4 <deregister_tm_clones+0x34>
  4008d8:	580000c1 	ldr	x1, 4008f0 <deregister_tm_clones+0x40>
  4008dc:	b4000041 	cbz	x1, 4008e4 <deregister_tm_clones+0x34>
  4008e0:	d63f0020 	blr	x1
  4008e4:	a8c17bfd 	ldp	x29, x30, [sp],#16
  4008e8:	d65f03c0 	ret
  4008ec:	d503201f 	nop
	...

00000000004008f8 <register_tm_clones>:
  4008f8:	b0000080 	adrp	x0, 411000 <_GLOBAL_OFFSET_TABLE_+0x50>
  4008fc:	b0000081 	adrp	x1, 411000 <_GLOBAL_OFFSET_TABLE_+0x50>
  400900:	9100e000 	add	x0, x0, #0x38
  400904:	9100e021 	add	x1, x1, #0x38
  400908:	cb000021 	sub	x1, x1, x0
  40090c:	9343fc22 	asr	x2, x1, #3
  400910:	a9bf7bfd 	stp	x29, x30, [sp,#-16]!
  400914:	8b42fc42 	add	x2, x2, x2, lsr #63
  400918:	9341fc41 	asr	x1, x2, #1
  40091c:	910003fd 	mov	x29, sp
  400920:	b4000081 	cbz	x1, 400930 <register_tm_clones+0x38>
  400924:	580000a2 	ldr	x2, 400938 <register_tm_clones+0x40>
  400928:	b4000042 	cbz	x2, 400930 <register_tm_clones+0x38>
  40092c:	d63f0040 	blr	x2
  400930:	a8c17bfd 	ldp	x29, x30, [sp],#16
  400934:	d65f03c0 	ret
	...

0000000000400940 <__do_global_dtors_aux>:
  400940:	a9be7bfd 	stp	x29, x30, [sp,#-32]!
  400944:	910003fd 	mov	x29, sp
  400948:	f9000bf3 	str	x19, [sp,#16]
  40094c:	b0000093 	adrp	x19, 411000 <_GLOBAL_OFFSET_TABLE_+0x50>
  400950:	39452260 	ldrb	w0, [x19,#328]
  400954:	35000080 	cbnz	w0, 400964 <__do_global_dtors_aux+0x24>
  400958:	97ffffd6 	bl	4008b0 <deregister_tm_clones>
  40095c:	52800020 	mov	w0, #0x1                   	// #1
  400960:	39052260 	strb	w0, [x19,#328]
  400964:	f9400bf3 	ldr	x19, [sp,#16]
  400968:	a8c27bfd 	ldp	x29, x30, [sp],#32
  40096c:	d65f03c0 	ret

0000000000400970 <frame_dummy>:
  400970:	a9bf7bfd 	stp	x29, x30, [sp,#-16]!
  400974:	90000080 	adrp	x0, 410000 <__FRAME_END__+0xf278>
  400978:	910003fd 	mov	x29, sp
  40097c:	9136a000 	add	x0, x0, #0xda8
  400980:	f9400001 	ldr	x1, [x0]
  400984:	b5000061 	cbnz	x1, 400990 <frame_dummy+0x20>
  400988:	a8c17bfd 	ldp	x29, x30, [sp],#16
  40098c:	17ffffdb 	b	4008f8 <register_tm_clones>
  400990:	58000081 	ldr	x1, 4009a0 <frame_dummy+0x30>
  400994:	b4ffffa1 	cbz	x1, 400988 <frame_dummy+0x18>
  400998:	d63f0020 	blr	x1
  40099c:	17fffffb 	b	400988 <frame_dummy+0x18>
	...

00000000004009a8 <main>:
  4009a8:	a9bc7bfd 	stp	x29, x30, [sp,#-64]!
  4009ac:	910003fd 	mov	x29, sp
  4009b0:	b9001fa0 	str	w0, [x29,#28]
  4009b4:	f9000ba1 	str	x1, [x29,#16]
  4009b8:	52820000 	mov	w0, #0x1000                	// #4096
  4009bc:	b9003fa0 	str	w0, [x29,#60]
  4009c0:	b9003bbf 	str	wzr, [x29,#56]
  4009c4:	b90037bf 	str	wzr, [x29,#52]
  4009c8:	b0000080 	adrp	x0, 411000 <_GLOBAL_OFFSET_TABLE_+0x50>
  4009cc:	9100e002 	add	x2, x0, #0x38
  4009d0:	90000000 	adrp	x0, 400000 <_init-0x760>
  4009d4:	912e0001 	add	x1, x0, #0xb80
  4009d8:	aa0203e0 	mov	x0, x2
  4009dc:	97ffff89 	bl	400800 <_ZStlsISt11char_traitsIcEERSt13basic_ostreamIcT_ES5_PKc@plt>
  4009e0:	aa0003e2 	mov	x2, x0
  4009e4:	90000000 	adrp	x0, 400000 <_init-0x760>
  4009e8:	91210001 	add	x1, x0, #0x840
  4009ec:	aa0203e0 	mov	x0, x2
  4009f0:	97ffff90 	bl	400830 <_ZNSolsEPFRSoS_E@plt>
  4009f4:	d503201f 	nop
  4009f8:	b9803fa1 	ldrsw	x1, [x29,#60]
  4009fc:	b98037a5 	ldrsw	x5, [x29,#52]
  400a00:	d2800000 	mov	x0, #0x0                   	// #0
  400a04:	52800022 	mov	w2, #0x1                   	// #1
  400a08:	52800043 	mov	w3, #0x2                   	// #2
  400a0c:	b9403ba4 	ldr	w4, [x29,#56]
  400a10:	97ffff80 	bl	400810 <mmap@plt>
  400a14:	f90017a0 	str	x0, [x29,#40]
  400a18:	d503201f 	nop
  400a1c:	b0000080 	adrp	x0, 411000 <_GLOBAL_OFFSET_TABLE_+0x50>
  400a20:	9100e002 	add	x2, x0, #0x38
  400a24:	90000000 	adrp	x0, 400000 <_init-0x760>
  400a28:	912e6001 	add	x1, x0, #0xb98
  400a2c:	aa0203e0 	mov	x0, x2
  400a30:	97ffff74 	bl	400800 <_ZStlsISt11char_traitsIcEERSt13basic_ostreamIcT_ES5_PKc@plt>
  400a34:	aa0003e2 	mov	x2, x0
  400a38:	90000000 	adrp	x0, 400000 <_init-0x760>
  400a3c:	91210001 	add	x1, x0, #0x840
  400a40:	aa0203e0 	mov	x0, x2
  400a44:	97ffff7b 	bl	400830 <_ZNSolsEPFRSoS_E@plt>
  400a48:	d503201f 	nop
  400a4c:	b9803fa1 	ldrsw	x1, [x29,#60]
  400a50:	f94017a0 	ldr	x0, [x29,#40]
  400a54:	97ffff5f 	bl	4007d0 <munmap@plt>
  400a58:	d503201f 	nop
  400a5c:	52800000 	mov	w0, #0x0                   	// #0
  400a60:	a8c47bfd 	ldp	x29, x30, [sp],#64
  400a64:	d65f03c0 	ret

0000000000400a68 <_Z41__static_initialization_and_destruction_0ii>:
  400a68:	a9be7bfd 	stp	x29, x30, [sp,#-32]!
  400a6c:	910003fd 	mov	x29, sp
  400a70:	b9001fa0 	str	w0, [x29,#28]
  400a74:	b9001ba1 	str	w1, [x29,#24]
  400a78:	b9401fa0 	ldr	w0, [x29,#28]
  400a7c:	7100041f 	cmp	w0, #0x1
  400a80:	54000201 	b.ne	400ac0 <_Z41__static_initialization_and_destruction_0ii+0x58>
  400a84:	b9401ba1 	ldr	w1, [x29,#24]
  400a88:	529fffe0 	mov	w0, #0xffff                	// #65535
  400a8c:	6b00003f 	cmp	w1, w0
  400a90:	54000181 	b.ne	400ac0 <_Z41__static_initialization_and_destruction_0ii+0x58>
  400a94:	b0000080 	adrp	x0, 411000 <_GLOBAL_OFFSET_TABLE_+0x50>
  400a98:	91054000 	add	x0, x0, #0x150
  400a9c:	97ffff49 	bl	4007c0 <_ZNSt8ios_base4InitC1Ev@plt>
  400aa0:	90000000 	adrp	x0, 400000 <_init-0x760>
  400aa4:	911fc003 	add	x3, x0, #0x7f0
  400aa8:	b0000080 	adrp	x0, 411000 <_GLOBAL_OFFSET_TABLE_+0x50>
  400aac:	91054001 	add	x1, x0, #0x150
  400ab0:	90000000 	adrp	x0, 400000 <_init-0x760>
  400ab4:	912de002 	add	x2, x0, #0xb78
  400ab8:	aa0303e0 	mov	x0, x3
  400abc:	97ffff49 	bl	4007e0 <__cxa_atexit@plt>
  400ac0:	a8c27bfd 	ldp	x29, x30, [sp],#32
  400ac4:	d65f03c0 	ret

0000000000400ac8 <_GLOBAL__sub_I_main>:
  400ac8:	a9bf7bfd 	stp	x29, x30, [sp,#-16]!
  400acc:	910003fd 	mov	x29, sp
  400ad0:	52800020 	mov	w0, #0x1                   	// #1
  400ad4:	529fffe1 	mov	w1, #0xffff                	// #65535
  400ad8:	97ffffe4 	bl	400a68 <_Z41__static_initialization_and_destruction_0ii>
  400adc:	a8c17bfd 	ldp	x29, x30, [sp],#16
  400ae0:	d65f03c0 	ret

0000000000400ae4 <__libc_csu_init>:
  400ae4:	a9bc7bfd 	stp	x29, x30, [sp,#-64]!
  400ae8:	910003fd 	mov	x29, sp
  400aec:	a90153f3 	stp	x19, x20, [sp,#16]
  400af0:	a9025bf5 	stp	x21, x22, [sp,#32]
  400af4:	a90363f7 	stp	x23, x24, [sp,#48]
  400af8:	aa0203f6 	mov	x22, x2
  400afc:	2a0003f8 	mov	w24, w0
  400b00:	aa0103f7 	mov	x23, x1
  400b04:	97ffff17 	bl	400760 <_init>
  400b08:	90000094 	adrp	x20, 410000 <__FRAME_END__+0xf278>
  400b0c:	90000080 	adrp	x0, 410000 <__FRAME_END__+0xf278>
  400b10:	91364294 	add	x20, x20, #0xd90
  400b14:	91368000 	add	x0, x0, #0xda0
  400b18:	cb140000 	sub	x0, x0, x20
  400b1c:	d2800013 	mov	x19, #0x0                   	// #0
  400b20:	9343fc15 	asr	x21, x0, #3
  400b24:	b4000135 	cbz	x21, 400b48 <__libc_csu_init+0x64>
  400b28:	f8737a83 	ldr	x3, [x20,x19,lsl #3]
  400b2c:	2a1803e0 	mov	w0, w24
  400b30:	aa1703e1 	mov	x1, x23
  400b34:	aa1603e2 	mov	x2, x22
  400b38:	91000673 	add	x19, x19, #0x1
  400b3c:	d63f0060 	blr	x3
  400b40:	eb15027f 	cmp	x19, x21
  400b44:	54ffff21 	b.ne	400b28 <__libc_csu_init+0x44>
  400b48:	a94153f3 	ldp	x19, x20, [sp,#16]
  400b4c:	a9425bf5 	ldp	x21, x22, [sp,#32]
  400b50:	a94363f7 	ldp	x23, x24, [sp,#48]
  400b54:	a8c47bfd 	ldp	x29, x30, [sp],#64
  400b58:	d65f03c0 	ret

0000000000400b5c <__libc_csu_fini>:
  400b5c:	d65f03c0 	ret

Disassembly of section .fini:

0000000000400b60 <_fini>:
  400b60:	a9bf7bfd 	stp	x29, x30, [sp,#-16]!
  400b64:	910003fd 	mov	x29, sp
  400b68:	a8c17bfd 	ldp	x29, x30, [sp],#16
  400b6c:	d65f03c0 	ret
